target datalayout = "e-m:e-p270:32:32-p271:32:32-p272:64:64-i64:64-i128:128-f80:128-n8:16:32:64-S128"
target triple = "x86_64-pc-linux-gnu"

%struct.H5VL_loc_params_t = type { i32, i32, %union.anon }
%union.anon = type { %struct.H5VL_loc_by_idx }
%struct.H5VL_loc_by_idx = type { ptr, i32, i32, i64, i64 }
%struct.H5VL_optional_args_t = type { i32, ptr }
%union.H5VL_native_object_optional_args_t = type { %struct.H5VL_native_object_get_comment_t }
%struct.H5VL_native_object_get_comment_t = type { i64, ptr, ptr }

@H5_libinit_g = external global i8, align 1
@H5_libterm_g = external global i8, align 1
@.str = private unnamed_addr constant [97 x i8] c"generated/home/dtcxzyw/WorkSpace/Projects/compilers/llvm-opt-benchmark/bench/hdf5/hdf5/src/H5O.c\00", align 1
@H5E_FUNC_g = external global i64, align 8
@H5E_CANTINIT_g = external global i64, align 8
@.str.1 = private unnamed_addr constant [30 x i8] c"library initialization failed\00", align 1
@H5E_CANTSET_g = external global i64, align 8
@.str.2 = private unnamed_addr constant [22 x i8] c"can't set API context\00", align 1
@H5E_OHDR_g = external global i64, align 8
@H5E_ARGS_g = external global i64, align 8
@H5E_BADTYPE_g = external global i64, align 8
@.str.21 = private unnamed_addr constant [28 x i8] c"invalid location identifier\00", align 1
@H5P_LST_DATASET_XFER_ID_g = external global i64, align 8
@H5E_CANTGET_g = external global i64, align 8
@__func__.H5Oget_comment = private unnamed_addr constant [15 x i8] c"H5Oget_comment\00", align 1
@.str.69 = private unnamed_addr constant [29 x i8] c"can't get comment for object\00", align 1

; Function Attrs: nounwind uwtable
define i64 @H5Oget_comment(i64 noundef %0, ptr noundef %1, i64 noundef %2) #0 {
  %4 = alloca i64, align 8
  %5 = alloca ptr, align 8
  %6 = alloca i64, align 8
  %7 = alloca ptr, align 8
  %8 = alloca %struct.H5VL_optional_args_t, align 8
  %9 = alloca %union.H5VL_native_object_optional_args_t, align 8
  %10 = alloca %struct.H5VL_loc_params_t, align 8
  %11 = alloca i64, align 8
  %12 = alloca i64, align 8
  %13 = alloca i8, align 1
  %14 = alloca i8, align 1
  store i64 %0, ptr %4, align 8
  store ptr %1, ptr %5, align 8
  store i64 %2, ptr %6, align 8
  store i64 0, ptr %11, align 8
  store i64 -1, ptr %12, align 8
  store i8 0, ptr %13, align 1
  store i8 0, ptr %14, align 1
  %15 = load i8, ptr @H5_libinit_g, align 1
  %16 = trunc i8 %15 to i1
  br i1 %16, label %21, label %17

17:                                               ; preds = %3
  %18 = load i8, ptr @H5_libterm_g, align 1
  %19 = trunc i8 %18 to i1
  %20 = xor i1 %19, true
  br label %21

21:                                               ; preds = %17, %3
  %22 = phi i1 [ false, %3 ], [ %20, %17 ]
  %23 = xor i1 %22, true
  %24 = xor i1 %23, true
  %25 = zext i1 %24 to i32
  %26 = sext i32 %25 to i64
  %27 = icmp ne i64 %26, 0
  br i1 %27, label %28, label %52

28:                                               ; preds = %21
  %29 = call i32 @H5_init_library()
  %30 = icmp slt i32 %29, 0
  %31 = xor i1 %30, true
  %32 = xor i1 %31, true
  %33 = zext i1 %32 to i32
  %34 = sext i32 %33 to i64
  %35 = icmp ne i64 %34, 0
  br i1 %35, label %36, label %51

36:                                               ; preds = %28
  br label %37

37:                                               ; preds = %36
  br label %38

38:                                               ; preds = %37
  br label %39

39:                                               ; preds = %38
  %40 = load i64, ptr @H5E_FUNC_g, align 8
  %41 = load i64, ptr @H5E_CANTINIT_g, align 8
  %42 = call i32 (ptr, ptr, i32, i64, i64, ptr, ...) @H5E_printf_stack(ptr noundef @.str, ptr noundef @__func__.H5Oget_comment, i32 noundef 1576, i64 noundef %40, i64 noundef %41, ptr noundef @.str.1)
  br label %43

43:                                               ; preds = %39
  store i8 1, ptr %14, align 1
  %44 = load i8, ptr %14, align 1
  %45 = trunc i8 %44 to i1
  %46 = zext i1 %45 to i8
  store i8 %46, ptr %14, align 1
  br label %47

47:                                               ; preds = %43
  br label %48

48:                                               ; preds = %47
  store i64 -1, ptr %12, align 8
  br label %129

49:                                               ; No predecessors!
  br label %50

50:                                               ; preds = %49
  br label %51

51:                                               ; preds = %50, %28
  br label %52

52:                                               ; preds = %51, %21
  %53 = call i32 @H5CX_push()
  %54 = icmp slt i32 %53, 0
  %55 = xor i1 %54, true
  %56 = xor i1 %55, true
  %57 = zext i1 %56 to i32
  %58 = sext i32 %57 to i64
  %59 = icmp ne i64 %58, 0
  br i1 %59, label %60, label %75

60:                                               ; preds = %52
  br label %61

61:                                               ; preds = %60
  br label %62

62:                                               ; preds = %61
  br label %63

63:                                               ; preds = %62
  %64 = load i64, ptr @H5E_FUNC_g, align 8
  %65 = load i64, ptr @H5E_CANTSET_g, align 8
  %66 = call i32 (ptr, ptr, i32, i64, i64, ptr, ...) @H5E_printf_stack(ptr noundef @.str, ptr noundef @__func__.H5Oget_comment, i32 noundef 1576, i64 noundef %64, i64 noundef %65, ptr noundef @.str.2)
  br label %67

67:                                               ; preds = %63
  store i8 1, ptr %14, align 1
  %68 = load i8, ptr %14, align 1
  %69 = trunc i8 %68 to i1
  %70 = zext i1 %69 to i8
  store i8 %70, ptr %14, align 1
  br label %71

71:                                               ; preds = %67
  br label %72

72:                                               ; preds = %71
  store i64 -1, ptr %12, align 8
  br label %129

73:                                               ; No predecessors!
  br label %74

74:                                               ; preds = %73
  br label %76

75:                                               ; preds = %52
  store i8 1, ptr %13, align 1
  br label %76

76:                                               ; preds = %75, %74
  %77 = call i32 @H5E_clear_stack()
  %78 = load i64, ptr %4, align 8
  %79 = call ptr @H5VL_vol_object(i64 noundef %78)
  store ptr %79, ptr %7, align 8
  %80 = icmp eq ptr null, %79
  br i1 %80, label %81, label %96

81:                                               ; preds = %76
  br label %82

82:                                               ; preds = %81
  br label %83

83:                                               ; preds = %82
  br label %84

84:                                               ; preds = %83
  %85 = load i64, ptr @H5E_ARGS_g, align 8
  %86 = load i64, ptr @H5E_BADTYPE_g, align 8
  %87 = call i32 (ptr, ptr, i32, i64, i64, ptr, ...) @H5E_printf_stack(ptr noundef @.str, ptr noundef @__func__.H5Oget_comment, i32 noundef 1580, i64 noundef %85, i64 noundef %86, ptr noundef @.str.21)
  br label %88

88:                                               ; preds = %84
  store i8 1, ptr %14, align 1
  %89 = load i8, ptr %14, align 1
  %90 = trunc i8 %89 to i1
  %91 = zext i1 %90 to i8
  store i8 %91, ptr %14, align 1
  br label %92

92:                                               ; preds = %88
  br label %93

93:                                               ; preds = %92
  store i64 -1, ptr %12, align 8
  br label %129

94:                                               ; No predecessors!
  br label %95

95:                                               ; preds = %94
  br label %96

96:                                               ; preds = %95, %76
  %97 = getelementptr inbounds %struct.H5VL_loc_params_t, ptr %10, i32 0, i32 1
  store i32 0, ptr %97, align 4
  %98 = load i64, ptr %4, align 8
  %99 = call i32 @H5I_get_type(i64 noundef %98)
  %100 = getelementptr inbounds %struct.H5VL_loc_params_t, ptr %10, i32 0, i32 0
  store i32 %99, ptr %100, align 8
  %101 = load ptr, ptr %5, align 8
  %102 = getelementptr inbounds %struct.H5VL_native_object_get_comment_t, ptr %9, i32 0, i32 1
  store ptr %101, ptr %102, align 8
  %103 = load i64, ptr %6, align 8
  %104 = getelementptr inbounds %struct.H5VL_native_object_get_comment_t, ptr %9, i32 0, i32 0
  store i64 %103, ptr %104, align 8
  %105 = getelementptr inbounds %struct.H5VL_native_object_get_comment_t, ptr %9, i32 0, i32 2
  store ptr %11, ptr %105, align 8
  %106 = getelementptr inbounds %struct.H5VL_optional_args_t, ptr %8, i32 0, i32 0
  store i32 0, ptr %106, align 8
  %107 = getelementptr inbounds %struct.H5VL_optional_args_t, ptr %8, i32 0, i32 1
  store ptr %9, ptr %107, align 8
  %108 = load ptr, ptr %7, align 8
  %109 = load i64, ptr @H5P_LST_DATASET_XFER_ID_g, align 8
  %110 = call i32 @H5VL_object_optional(ptr noundef %108, ptr noundef %10, ptr noundef %8, i64 noundef %109, ptr noundef null)
  %111 = icmp slt i32 %110, 0
  br i1 %111, label %112, label %127

112:                                              ; preds = %96
  br label %113

113:                                              ; preds = %112
  br label %114

114:                                              ; preds = %113
  br label %115

115:                                              ; preds = %114
  %116 = load i64, ptr @H5E_OHDR_g, align 8
  %117 = load i64, ptr @H5E_CANTGET_g, align 8
  %118 = call i32 (ptr, ptr, i32, i64, i64, ptr, ...) @H5E_printf_stack(ptr noundef @.str, ptr noundef @__func__.H5Oget_comment, i32 noundef 1596, i64 noundef %116, i64 noundef %117, ptr noundef @.str.69)
  br label %119

119:                                              ; preds = %115
  store i8 1, ptr %14, align 1
  %120 = load i8, ptr %14, align 1
  %121 = trunc i8 %120 to i1
  %122 = zext i1 %121 to i8
  store i8 %122, ptr %14, align 1
  br label %123

123:                                              ; preds = %119
  br label %124

124:                                              ; preds = %123
  store i64 -1, ptr %12, align 8
  br label %129

125:                                              ; No predecessors!
  br label %126

126:                                              ; preds = %125
  br label %127

127:                                              ; preds = %126, %96
  %128 = load i64, ptr %11, align 8
  store i64 %128, ptr %12, align 8
  br label %129

129:                                              ; preds = %127, %124, %93, %72, %48
  %130 = load i8, ptr %13, align 1
  %131 = trunc i8 %130 to i1
  %132 = xor i1 %131, true
  %133 = xor i1 %132, true
  %134 = zext i1 %133 to i32
  %135 = sext i32 %134 to i64
  %136 = icmp ne i64 %135, 0
  br i1 %136, label %137, label %139

137:                                              ; preds = %129
  %138 = call i32 @H5CX_pop(i1 noundef zeroext true)
  store i8 0, ptr %13, align 1
  br label %139

139:                                              ; preds = %137, %129
  %140 = load i8, ptr %14, align 1
  %141 = trunc i8 %140 to i1
  %142 = xor i1 %141, true
  %143 = xor i1 %142, true
  %144 = zext i1 %143 to i32
  %145 = sext i32 %144 to i64
  %146 = icmp ne i64 %145, 0
  br i1 %146, label %147, label %149

147:                                              ; preds = %139
  %148 = call i32 @H5E_dump_api_stack()
  br label %149

149:                                              ; preds = %147, %139
  %150 = load i64, ptr %12, align 8
  ret i64 %150
}