; Function Attrs: nounwind uwtable
define i64 @H5Oget_comment(i64 noundef %0, ptr noundef %1, i64 noundef %2) local_unnamed_addr #0 {
  %4 = alloca %struct.H5VL_optional_args_t, align 8
  %5 = alloca %union.H5VL_native_object_optional_args_t, align 8
  %6 = alloca %struct.H5VL_loc_params_t, align 8
  %7 = alloca i64, align 8
  store i64 0, ptr %7, align 8
  %8 = load i8, ptr @H5_libinit_g, align 1
  %9 = trunc i8 %8 to i1
  %10 = load i8, ptr @H5_libterm_g, align 1
  %11 = trunc i8 %10 to i1
  %12 = select i1 %9, i1 true, i1 %11
  br i1 %12, label %20, label %13

13:                                               ; preds = %3
  %14 = tail call i32 @H5_init_library() #4
  %15 = icmp slt i32 %14, 0
  br i1 %15, label %16, label %20

16:                                               ; preds = %13
  %17 = load i64, ptr @H5E_FUNC_g, align 8
  %18 = load i64, ptr @H5E_CANTINIT_g, align 8
  %19 = tail call i32 (ptr, ptr, i32, i64, i64, ptr, ...) @H5E_printf_stack(ptr noundef nonnull @.str, ptr noundef nonnull @__func__.H5Oget_comment, i32 noundef 1576, i64 noundef %17, i64 noundef %18, ptr noundef nonnull @.str.1) #4
  br label %.thread22

20:                                               ; preds = %13, %3
  %21 = tail call i32 @H5CX_push() #4
  %22 = icmp slt i32 %21, 0
  br i1 %22, label %23, label %27

23:                                               ; preds = %20
  %24 = load i64, ptr @H5E_FUNC_g, align 8
  %25 = load i64, ptr @H5E_CANTSET_g, align 8
  %26 = tail call i32 (ptr, ptr, i32, i64, i64, ptr, ...) @H5E_printf_stack(ptr noundef nonnull @.str, ptr noundef nonnull @__func__.H5Oget_comment, i32 noundef 1576, i64 noundef %24, i64 noundef %25, ptr noundef nonnull @.str.2) #4
  br label %.thread22

27:                                               ; preds = %20
  %28 = tail call i32 @H5E_clear_stack() #4
  %29 = tail call ptr @H5VL_vol_object(i64 noundef %0) #4
  %30 = icmp eq ptr %29, null
  br i1 %30, label %31, label %35

31:                                               ; preds = %27
  %32 = load i64, ptr @H5E_ARGS_g, align 8
  %33 = load i64, ptr @H5E_BADTYPE_g, align 8
  %34 = tail call i32 (ptr, ptr, i32, i64, i64, ptr, ...) @H5E_printf_stack(ptr noundef nonnull @.str, ptr noundef nonnull @__func__.H5Oget_comment, i32 noundef 1580, i64 noundef %32, i64 noundef %33, ptr noundef nonnull @.str.21) #4
  br label %.thread28

35:                                               ; preds = %27
  %36 = getelementptr inbounds i8, ptr %6, i64 4
  store i32 0, ptr %36, align 4
  %37 = tail call i32 @H5I_get_type(i64 noundef %0) #4
  store i32 %37, ptr %6, align 8
  %38 = getelementptr inbounds i8, ptr %5, i64 8
  store ptr %1, ptr %38, align 8
  store i64 %2, ptr %5, align 8
  %39 = getelementptr inbounds i8, ptr %5, i64 16
  store ptr %7, ptr %39, align 8
  store i32 0, ptr %4, align 8
  %40 = getelementptr inbounds i8, ptr %4, i64 8
  store ptr %5, ptr %40, align 8
  %41 = load i64, ptr @H5P_LST_DATASET_XFER_ID_g, align 8
  %42 = call i32 @H5VL_object_optional(ptr noundef nonnull %29, ptr noundef nonnull %6, ptr noundef nonnull %4, i64 noundef %41, ptr noundef null) #4
  %43 = icmp slt i32 %42, 0
  br i1 %43, label %44, label %49

44:                                               ; preds = %35
  %45 = load i64, ptr @H5E_OHDR_g, align 8
  %46 = load i64, ptr @H5E_CANTGET_g, align 8
  %47 = call i32 (ptr, ptr, i32, i64, i64, ptr, ...) @H5E_printf_stack(ptr noundef nonnull @.str, ptr noundef nonnull @__func__.H5Oget_comment, i32 noundef 1596, i64 noundef %45, i64 noundef %46, ptr noundef nonnull @.str.69) #4
  br label %.thread28

.thread28:                                        ; preds = %44, %31
  %48 = call i32 @H5CX_pop(i1 noundef zeroext true) #4
  br label %.thread22

49:                                               ; preds = %35
  %50 = load i64, ptr %7, align 8
  %51 = call i32 @H5CX_pop(i1 noundef zeroext true) #4
  br label %53

.thread22:                                        ; preds = %23, %16, %.thread28
  %52 = call i32 @H5E_dump_api_stack() #4
  br label %53

53:                                               ; preds = %49, %.thread22
  %.0121725 = phi i64 [ -1, %.thread22 ], [ %50, %49 ]
  ret i64 %.0121725
}